target datalayout = "e-m:e-p270:32:32-p271:32:32-p272:64:64-i64:64-i128:128-f80:128-n8:16:32:64-S128"
target triple = "x86_64-pc-linux-gnu"

%struct.ImVec2 = type { float, float }
%struct.ImGuiSizeCallbackData = type { ptr, %struct.ImVec2, %struct.ImVec2, %struct.ImVec2 }

; Function Attrs: mustprogress nounwind uwtable
define internal void @_ZZL31ShowExampleAppConstrainedResizePbEN17CustomConstraints6SquareEP21ImGuiSizeCallbackData(ptr noundef %0) #4 align 2 {
  %2 = alloca ptr, align 8
  store ptr %0, ptr %2, align 8, !tbaa !629
  %3 = load ptr, ptr %2, align 8, !tbaa !629
  %4 = getelementptr inbounds nuw %struct.ImGuiSizeCallbackData, ptr %3, i32 0, i32 3
  %5 = getelementptr inbounds nuw %struct.ImVec2, ptr %4, i32 0, i32 0
  %6 = load float, ptr %5, align 8, !tbaa !633
  %7 = load ptr, ptr %2, align 8, !tbaa !629
  %8 = getelementptr inbounds nuw %struct.ImGuiSizeCallbackData, ptr %7, i32 0, i32 3
  %9 = getelementptr inbounds nuw %struct.ImVec2, ptr %8, i32 0, i32 1
  %10 = load float, ptr %9, align 4, !tbaa !634
  %11 = fcmp oge float %6, %10
  br i1 %11, label %12, label %17

12:                                               ; preds = %1
  %13 = load ptr, ptr %2, align 8, !tbaa !629
  %14 = getelementptr inbounds nuw %struct.ImGuiSizeCallbackData, ptr %13, i32 0, i32 3
  %15 = getelementptr inbounds nuw %struct.ImVec2, ptr %14, i32 0, i32 0
  %16 = load float, ptr %15, align 8, !tbaa !633
  br label %22

17:                                               ; preds = %1
  %18 = load ptr, ptr %2, align 8, !tbaa !629
  %19 = getelementptr inbounds nuw %struct.ImGuiSizeCallbackData, ptr %18, i32 0, i32 3
  %20 = getelementptr inbounds nuw %struct.ImVec2, ptr %19, i32 0, i32 1
  %21 = load float, ptr %20, align 4, !tbaa !634
  br label %22

22:                                               ; preds = %17, %12
  %23 = phi float [ %16, %12 ], [ %21, %17 ]
  %24 = load ptr, ptr %2, align 8, !tbaa !629
  %25 = getelementptr inbounds nuw %struct.ImGuiSizeCallbackData, ptr %24, i32 0, i32 3
  %26 = getelementptr inbounds nuw %struct.ImVec2, ptr %25, i32 0, i32 1
  store float %23, ptr %26, align 4, !tbaa !634
  %27 = load ptr, ptr %2, align 8, !tbaa !629
  %28 = getelementptr inbounds nuw %struct.ImGuiSizeCallbackData, ptr %27, i32 0, i32 3
  %29 = getelementptr inbounds nuw %struct.ImVec2, ptr %28, i32 0, i32 0
  store float %23, ptr %29, align 8, !tbaa !633
  ret void
}