; Function Attrs: mustprogress nofree norecurse nosync nounwind willreturn memory(argmem: readwrite) uwtable
define internal void @_ZZL31ShowExampleAppConstrainedResizePbEN17CustomConstraints6SquareEP21ImGuiSizeCallbackData(ptr noundef captures(none) %0) #11 align 2 {
  %2 = getelementptr inbounds nuw i8, ptr %0, i64 24
  %3 = load float, ptr %2, align 8, !tbaa !549
  %4 = getelementptr inbounds nuw i8, ptr %0, i64 28
  %5 = load float, ptr %4, align 4, !tbaa !550
  %.inv = fcmp oge float %3, %5
  %. = select i1 %.inv, float %3, float %5
  store float %., ptr %4, align 4, !tbaa !550
  store float %., ptr %2, align 8, !tbaa !549
  ret void
}